target datalayout = "e-m:e-p270:32:32-p271:32:32-p272:64:64-i64:64-i128:128-f80:128-n8:16:32:64-S128"
target triple = "x86_64-pc-linux-gnu"

%struct._fcgi_request = type { i32, i32, i32, i32, i32, i32, i32, i32, i32, ptr, ptr, [8192 x i8], [16 x i8], %struct._fcgi_req_hook, i32, %struct._fcgi_hash }
%struct._fcgi_req_hook = type { ptr, ptr, ptr }
%struct._fcgi_hash = type { [128 x ptr], ptr, ptr, ptr }
%struct._fcgi_hash_bucket = type { i32, i32, ptr, i32, ptr, ptr, ptr }

; Function Attrs: nounwind uwtable
define internal void @fcgi_hash_del(ptr noundef %0, i32 noundef %1, ptr noundef %2, i32 noundef %3) #0 {
  %5 = alloca ptr, align 8
  %6 = alloca i32, align 4
  %7 = alloca ptr, align 8
  %8 = alloca i32, align 4
  %9 = alloca i32, align 4
  %10 = alloca ptr, align 8
  store ptr %0, ptr %5, align 8
  store i32 %1, ptr %6, align 4
  store ptr %2, ptr %7, align 8
  store i32 %3, ptr %8, align 4
  %11 = load i32, ptr %6, align 4
  %12 = and i32 %11, 127
  store i32 %12, ptr %9, align 4
  %13 = load ptr, ptr %5, align 8
  %14 = getelementptr inbounds %struct._fcgi_hash, ptr %13, i32 0, i32 0
  %15 = load i32, ptr %9, align 4
  %16 = zext i32 %15 to i64
  %17 = getelementptr inbounds [128 x ptr], ptr %14, i64 0, i64 %16
  store ptr %17, ptr %10, align 8
  br label %18

18:                                               ; preds = %58, %4
  %19 = load ptr, ptr %10, align 8
  %20 = load ptr, ptr %19, align 8
  %21 = icmp ne ptr %20, null
  br i1 %21, label %22, label %62

22:                                               ; preds = %18
  %23 = load ptr, ptr %10, align 8
  %24 = load ptr, ptr %23, align 8
  %25 = getelementptr inbounds %struct._fcgi_hash_bucket, ptr %24, i32 0, i32 0
  %26 = load i32, ptr %25, align 8
  %27 = load i32, ptr %6, align 4
  %28 = icmp eq i32 %26, %27
  br i1 %28, label %29, label %58

29:                                               ; preds = %22
  %30 = load ptr, ptr %10, align 8
  %31 = load ptr, ptr %30, align 8
  %32 = getelementptr inbounds %struct._fcgi_hash_bucket, ptr %31, i32 0, i32 1
  %33 = load i32, ptr %32, align 4
  %34 = load i32, ptr %8, align 4
  %35 = icmp eq i32 %33, %34
  br i1 %35, label %36, label %58

36:                                               ; preds = %29
  %37 = load ptr, ptr %10, align 8
  %38 = load ptr, ptr %37, align 8
  %39 = getelementptr inbounds %struct._fcgi_hash_bucket, ptr %38, i32 0, i32 2
  %40 = load ptr, ptr %39, align 8
  %41 = load ptr, ptr %7, align 8
  %42 = load i32, ptr %8, align 4
  %43 = zext i32 %42 to i64
  %44 = call i32 @memcmp(ptr noundef %40, ptr noundef %41, i64 noundef %43) #16
  %45 = icmp eq i32 %44, 0
  br i1 %45, label %46, label %58

46:                                               ; preds = %36
  %47 = load ptr, ptr %10, align 8
  %48 = load ptr, ptr %47, align 8
  %49 = getelementptr inbounds %struct._fcgi_hash_bucket, ptr %48, i32 0, i32 4
  store ptr null, ptr %49, align 8
  %50 = load ptr, ptr %10, align 8
  %51 = load ptr, ptr %50, align 8
  %52 = getelementptr inbounds %struct._fcgi_hash_bucket, ptr %51, i32 0, i32 3
  store i32 0, ptr %52, align 8
  %53 = load ptr, ptr %10, align 8
  %54 = load ptr, ptr %53, align 8
  %55 = getelementptr inbounds %struct._fcgi_hash_bucket, ptr %54, i32 0, i32 5
  %56 = load ptr, ptr %55, align 8
  %57 = load ptr, ptr %10, align 8
  store ptr %56, ptr %57, align 8
  br label %62

58:                                               ; preds = %36, %29, %22
  %59 = load ptr, ptr %10, align 8
  %60 = load ptr, ptr %59, align 8
  %61 = getelementptr inbounds %struct._fcgi_hash_bucket, ptr %60, i32 0, i32 5
  store ptr %61, ptr %10, align 8
  br label %18

62:                                               ; preds = %46, %18
  ret void
}

; Function Attrs: nounwind uwtable
define hidden ptr @fcgi_quick_putenv(ptr noundef %0, ptr noundef %1, i32 noundef %2, i32 noundef %3, ptr noundef %4) #0 {
  %6 = alloca ptr, align 8
  %7 = alloca ptr, align 8
  %8 = alloca ptr, align 8
  %9 = alloca i32, align 4
  %10 = alloca i32, align 4
  %11 = alloca ptr, align 8
  store ptr %0, ptr %7, align 8
  store ptr %1, ptr %8, align 8
  store i32 %2, ptr %9, align 4
  store i32 %3, ptr %10, align 4
  store ptr %4, ptr %11, align 8
  %12 = load ptr, ptr %11, align 8
  %13 = icmp eq ptr %12, null
  br i1 %13, label %14, label %20

14:                                               ; preds = %5
  %15 = load ptr, ptr %7, align 8
  %16 = getelementptr inbounds %struct._fcgi_request, ptr %15, i32 0, i32 15
  %17 = load i32, ptr %10, align 4
  %18 = load ptr, ptr %8, align 8
  %19 = load i32, ptr %9, align 4
  call void @fcgi_hash_del(ptr noundef %16, i32 noundef %17, ptr noundef %18, i32 noundef %19)
  store ptr null, ptr %6, align 8
  br label %31

20:                                               ; preds = %5
  %21 = load ptr, ptr %7, align 8
  %22 = getelementptr inbounds %struct._fcgi_request, ptr %21, i32 0, i32 15
  %23 = load i32, ptr %10, align 4
  %24 = load ptr, ptr %8, align 8
  %25 = load i32, ptr %9, align 4
  %26 = load ptr, ptr %11, align 8
  %27 = load ptr, ptr %11, align 8
  %28 = call i64 @strlen(ptr noundef %27) #16
  %29 = trunc i64 %28 to i32
  %30 = call ptr @fcgi_hash_set(ptr noundef %22, i32 noundef %23, ptr noundef %24, i32 noundef %25, ptr noundef %26, i32 noundef %29)
  store ptr %30, ptr %6, align 8
  br label %31

31:                                               ; preds = %20, %14
  %32 = load ptr, ptr %6, align 8
  ret ptr %32
}