; Function Attrs: nofree nounwind uwtable
define hidden ptr @fcgi_quick_putenv(ptr nocapture noundef %0, ptr nocapture noundef readonly %1, i32 noundef %2, i32 noundef %3, ptr noundef readonly %4) local_unnamed_addr #22 {
  %6 = icmp eq ptr %4, null
  %7 = getelementptr inbounds i8, ptr %0, i64 8296
  br i1 %6, label %8, label %36

8:                                                ; preds = %5
  %9 = and i32 %3, 127
  %10 = zext nneg i32 %9 to i64
  %11 = getelementptr inbounds [128 x ptr], ptr %7, i64 0, i64 %10
  %12 = load ptr, ptr %11, align 8
  %.not19.i = icmp eq ptr %12, null
  br i1 %.not19.i, label %fcgi_hash_del.exit, label %.lr.ph.i

.lr.ph.i:                                         ; preds = %8
  %13 = zext i32 %2 to i64
  br label %14

14:                                               ; preds = %33, %.lr.ph.i
  %15 = phi ptr [ %12, %.lr.ph.i ], [ %35, %33 ]
  %.020.i = phi ptr [ %11, %.lr.ph.i ], [ %34, %33 ]
  %16 = load i32, ptr %15, align 8
  %17 = icmp eq i32 %16, %3
  br i1 %17, label %18, label %33

18:                                               ; preds = %14
  %19 = getelementptr inbounds i8, ptr %15, i64 4
  %20 = load i32, ptr %19, align 4
  %21 = icmp eq i32 %20, %2
  br i1 %21, label %22, label %33

22:                                               ; preds = %18
  %23 = getelementptr inbounds i8, ptr %15, i64 8
  %24 = load ptr, ptr %23, align 8
  %bcmp.i = tail call i32 @bcmp(ptr %24, ptr %1, i64 %13)
  %25 = icmp eq i32 %bcmp.i, 0
  br i1 %25, label %26, label %33

26:                                               ; preds = %22
  %27 = getelementptr inbounds i8, ptr %15, i64 24
  store ptr null, ptr %27, align 8
  %28 = load ptr, ptr %.020.i, align 8
  %29 = getelementptr inbounds i8, ptr %28, i64 16
  store i32 0, ptr %29, align 8
  %30 = load ptr, ptr %.020.i, align 8
  %31 = getelementptr inbounds i8, ptr %30, i64 32
  %32 = load ptr, ptr %31, align 8
  store ptr %32, ptr %.020.i, align 8
  br label %fcgi_hash_del.exit

33:                                               ; preds = %22, %18, %14
  %34 = getelementptr inbounds i8, ptr %15, i64 32
  %35 = load ptr, ptr %34, align 8
  %.not.i = icmp eq ptr %35, null
  br i1 %.not.i, label %fcgi_hash_del.exit, label %14

36:                                               ; preds = %5
  %37 = tail call i64 @strlen(ptr noundef nonnull dereferenceable(1) %4) #35
  %38 = trunc i64 %37 to i32
  %39 = tail call fastcc ptr @fcgi_hash_set(ptr noundef nonnull %7, i32 noundef %3, ptr noundef %1, i32 noundef %2, ptr noundef nonnull %4, i32 noundef %38)
  br label %fcgi_hash_del.exit

fcgi_hash_del.exit:                               ; preds = %33, %26, %8, %36
  %.0 = phi ptr [ %39, %36 ], [ null, %8 ], [ null, %26 ], [ null, %33 ]
  ret ptr %.0
}